; Function Attrs: nounwind uwtable
define dso_local void @syncrep_yy_switch_to_buffer(ptr noundef %0, ptr noundef captures(none) %1) local_unnamed_addr #0 {
  %3 = getelementptr inbounds nuw i8, ptr %1, i64 40
  %4 = load ptr, ptr %3, align 8
  %.not.i = icmp eq ptr %4, null
  br i1 %.not.i, label %5, label %11

5:                                                ; preds = %2
  %6 = tail call ptr @palloc(i64 noundef 8) #15
  store ptr %6, ptr %3, align 8
  %.not28.i = icmp eq ptr %6, null
  br i1 %.not28.i, label %7, label %8

7:                                                ; preds = %5
  tail call fastcc void @yy_fatal_error(ptr noundef nonnull @.str.18) #16
  unreachable

8:                                                ; preds = %5
  store i64 0, ptr %6, align 8
  %9 = getelementptr inbounds nuw i8, ptr %1, i64 32
  store i64 1, ptr %9, align 8
  %10 = getelementptr inbounds nuw i8, ptr %1, i64 24
  store i64 0, ptr %10, align 8
  br label %syncrep_yyensure_buffer_stack.exit

11:                                               ; preds = %2
  %12 = getelementptr inbounds nuw i8, ptr %1, i64 24
  %13 = load i64, ptr %12, align 8
  %14 = getelementptr inbounds nuw i8, ptr %1, i64 32
  %15 = load i64, ptr %14, align 8
  %16 = add i64 %15, -1
  %.not29.i = icmp ult i64 %13, %16
  br i1 %.not29.i, label %syncrep_yyensure_buffer_stack.exit, label %syncrep_yyrealloc.exit.i

syncrep_yyrealloc.exit.i:                         ; preds = %11
  %17 = add i64 %15, 8
  %18 = shl i64 %17, 3
  %19 = tail call ptr @repalloc(ptr noundef nonnull %4, i64 noundef %18) #15
  store ptr %19, ptr %3, align 8
  %.not30.i = icmp eq ptr %19, null
  br i1 %.not30.i, label %20, label %21

20:                                               ; preds = %syncrep_yyrealloc.exit.i
  tail call fastcc void @yy_fatal_error(ptr noundef nonnull @.str.18) #16
  unreachable

21:                                               ; preds = %syncrep_yyrealloc.exit.i
  %22 = load i64, ptr %14, align 8
  %23 = getelementptr inbounds nuw ptr, ptr %19, i64 %22
  tail call void @llvm.memset.p0.i64(ptr noundef nonnull align 8 dereferenceable(64) %23, i8 0, i64 64, i1 false)
  store i64 %17, ptr %14, align 8
  br label %syncrep_yyensure_buffer_stack.exit

syncrep_yyensure_buffer_stack.exit:               ; preds = %8, %11, %21
  %24 = load ptr, ptr %3, align 8
  %.not = icmp eq ptr %24, null
  br i1 %.not, label %25, label %.thread

25:                                               ; preds = %syncrep_yyensure_buffer_stack.exit
  %26 = icmp eq ptr %0, null
  tail call void @llvm.assume(i1 %26)
  br label %74

.thread:                                          ; preds = %syncrep_yyensure_buffer_stack.exit
  %27 = getelementptr inbounds nuw i8, ptr %1, i64 24
  %28 = load i64, ptr %27, align 8
  %29 = getelementptr inbounds nuw ptr, ptr %24, i64 %28
  %30 = load ptr, ptr %29, align 8
  %31 = icmp eq ptr %30, %0
  br i1 %31, label %74, label %32

32:                                               ; preds = %.thread
  %.not25 = icmp eq ptr %30, null
  br i1 %.not25, label %51, label %33

33:                                               ; preds = %32
  %34 = getelementptr inbounds nuw i8, ptr %1, i64 48
  %35 = load i8, ptr %34, align 8
  %36 = getelementptr inbounds nuw i8, ptr %1, i64 64
  %37 = load ptr, ptr %36, align 8
  store i8 %35, ptr %37, align 1
  %38 = load ptr, ptr %36, align 8
  %39 = load ptr, ptr %3, align 8
  %40 = load i64, ptr %27, align 8
  %41 = getelementptr inbounds nuw ptr, ptr %39, i64 %40
  %42 = load ptr, ptr %41, align 8
  %43 = getelementptr inbounds nuw i8, ptr %42, i64 16
  store ptr %38, ptr %43, align 8
  %44 = getelementptr inbounds nuw i8, ptr %1, i64 52
  %45 = load i32, ptr %44, align 4
  %46 = load ptr, ptr %3, align 8
  %47 = load i64, ptr %27, align 8
  %48 = getelementptr inbounds nuw ptr, ptr %46, i64 %47
  %49 = load ptr, ptr %48, align 8
  %50 = getelementptr inbounds nuw i8, ptr %49, i64 28
  store i32 %45, ptr %50, align 4
  %.pre = load ptr, ptr %3, align 8
  br label %51

51:                                               ; preds = %33, %32
  %52 = phi ptr [ %.pre, %33 ], [ %24, %32 ]
  %53 = getelementptr inbounds nuw i8, ptr %1, i64 24
  %54 = load i64, ptr %53, align 8
  %55 = getelementptr inbounds nuw ptr, ptr %52, i64 %54
  store ptr %0, ptr %55, align 8
  %56 = load ptr, ptr %3, align 8
  %57 = load i64, ptr %53, align 8
  %58 = getelementptr inbounds nuw ptr, ptr %56, i64 %57
  %59 = load ptr, ptr %58, align 8
  %60 = getelementptr inbounds nuw i8, ptr %59, i64 28
  %61 = load i32, ptr %60, align 4
  %62 = getelementptr inbounds nuw i8, ptr %1, i64 52
  store i32 %61, ptr %62, align 4
  %63 = load ptr, ptr %58, align 8
  %64 = getelementptr inbounds nuw i8, ptr %63, i64 16
  %65 = load ptr, ptr %64, align 8
  %66 = getelementptr inbounds nuw i8, ptr %1, i64 64
  store ptr %65, ptr %66, align 8
  %67 = getelementptr inbounds nuw i8, ptr %1, i64 128
  store ptr %65, ptr %67, align 8
  %68 = load ptr, ptr %58, align 8
  %69 = load ptr, ptr %68, align 8
  %70 = getelementptr inbounds nuw i8, ptr %1, i64 8
  store ptr %69, ptr %70, align 8
  %71 = load i8, ptr %65, align 1
  %72 = getelementptr inbounds nuw i8, ptr %1, i64 48
  store i8 %71, ptr %72, align 8
  %73 = getelementptr inbounds nuw i8, ptr %1, i64 80
  store i32 1, ptr %73, align 8
  br label %74

74:                                               ; preds = %25, %.thread, %51
  ret void
}